target datalayout = "e-m:e-p270:32:32-p271:32:32-p272:64:64-i64:64-i128:128-f80:128-n8:16:32:64-S128"
target triple = "x86_64-pc-linux-gnu"

%"class.icu_77::Replaceable" = type { %"class.icu_77::UObject" }
%"class.icu_77::UObject" = type { ptr }
%"class.icu_77::UnicodeString" = type { %"class.icu_77::Replaceable", %"union.icu_77::UnicodeString::StackBufferOrFields" }
%"union.icu_77::UnicodeString::StackBufferOrFields" = type { %struct.anon.0, [32 x i8] }
%struct.anon.0 = type { i16, i32, i32, ptr }
%"class.icu_77::Char16Ptr" = type { ptr }

; Function Attrs: inlinehint mustprogress nounwind uwtable
define linkonce_odr void @_ZN6icu_779Char16PtrD2Ev(ptr noundef nonnull align 8 dereferenceable(8) %0) unnamed_addr #2 comdat align 2 {
  %2 = alloca ptr, align 8
  store ptr %0, ptr %2, align 8, !tbaa !66
  %3 = load ptr, ptr %2, align 8
  %4 = getelementptr inbounds nuw %"class.icu_77::Char16Ptr", ptr %3, i32 0, i32 0
  %5 = load ptr, ptr %4, align 8, !tbaa !68
  call void asm sideeffect "", "rm,~{memory},~{dirflag},~{fpsr},~{flags}"(ptr %5) #9, !srcloc !70
  ret void
}

; Function Attrs: inlinehint mustprogress nounwind uwtable
define linkonce_odr void @_ZN6icu_779Char16PtrC2EPDs(ptr noundef nonnull align 8 dereferenceable(8) %0, ptr noundef %1) unnamed_addr #2 comdat align 2 {
  %3 = alloca ptr, align 8
  %4 = alloca ptr, align 8
  store ptr %0, ptr %3, align 8, !tbaa !66
  store ptr %1, ptr %4, align 8, !tbaa !33
  %5 = load ptr, ptr %3, align 8
  %6 = getelementptr inbounds nuw %"class.icu_77::Char16Ptr", ptr %5, i32 0, i32 0
  %7 = load ptr, ptr %4, align 8, !tbaa !33
  store ptr %7, ptr %6, align 8, !tbaa !68
  ret void
}

; Function Attrs: inlinehint mustprogress nounwind uwtable
define internal noundef signext i8 @_ZL9U_FAILURE10UErrorCode(i32 noundef %0) #2 {
  %2 = alloca i32, align 4
  store i32 %0, ptr %2, align 4, !tbaa !40
  %3 = load i32, ptr %2, align 4, !tbaa !40
  %4 = icmp sgt i32 %3, 0
  %5 = zext i1 %4 to i8
  ret i8 %5
}

; Function Attrs: mustprogress uwtable
define void @utrans_transUChars_77(ptr noundef %0, ptr noundef %1, ptr noundef %2, i32 noundef %3, i32 noundef %4, ptr noundef %5, ptr noundef %6) #1 personality ptr @__gxx_personality_v0 {
  %8 = alloca ptr, align 8
  %9 = alloca ptr, align 8
  %10 = alloca ptr, align 8
  %11 = alloca i32, align 4
  %12 = alloca i32, align 4
  %13 = alloca ptr, align 8
  %14 = alloca ptr, align 8
  %15 = alloca i32, align 4
  %16 = alloca %"class.icu_77::UnicodeString", align 8
  %17 = alloca ptr, align 8
  %18 = alloca i32, align 4
  %19 = alloca %"class.icu_77::Char16Ptr", align 8
  store ptr %0, ptr %8, align 8, !tbaa !8
  store ptr %1, ptr %9, align 8, !tbaa !33
  store ptr %2, ptr %10, align 8, !tbaa !51
  store i32 %3, ptr %11, align 4, !tbaa !23
  store i32 %4, ptr %12, align 4, !tbaa !23
  store ptr %5, ptr %13, align 8, !tbaa !51
  store ptr %6, ptr %14, align 8, !tbaa !39
  %20 = load ptr, ptr %14, align 8, !tbaa !39
  %21 = icmp eq ptr %20, null
  br i1 %21, label %27, label %22

22:                                               ; preds = %7
  %23 = load ptr, ptr %14, align 8, !tbaa !39
  %24 = load i32, ptr %23, align 4, !tbaa !40
  %25 = call noundef signext i8 @_ZL9U_FAILURE10UErrorCode(i32 noundef %24)
  %26 = icmp ne i8 %25, 0
  br i1 %26, label %27, label %28

27:                                               ; preds = %22, %7
  br label %87

28:                                               ; preds = %22
  %29 = load ptr, ptr %8, align 8, !tbaa !8
  %30 = icmp eq ptr %29, null
  br i1 %30, label %37, label %31

31:                                               ; preds = %28
  %32 = load ptr, ptr %9, align 8, !tbaa !33
  %33 = icmp eq ptr %32, null
  br i1 %33, label %37, label %34

34:                                               ; preds = %31
  %35 = load ptr, ptr %13, align 8, !tbaa !51
  %36 = icmp eq ptr %35, null
  br i1 %36, label %37, label %39

37:                                               ; preds = %34, %31, %28
  %38 = load ptr, ptr %14, align 8, !tbaa !39
  store i32 1, ptr %38, align 4, !tbaa !40
  br label %87

39:                                               ; preds = %34
  call void @llvm.lifetime.start.p0(i64 4, ptr %15) #9
  %40 = load ptr, ptr %10, align 8, !tbaa !51
  %41 = icmp eq ptr %40, null
  br i1 %41, label %46, label %42

42:                                               ; preds = %39
  %43 = load ptr, ptr %10, align 8, !tbaa !51
  %44 = load i32, ptr %43, align 4, !tbaa !23
  %45 = icmp slt i32 %44, 0
  br i1 %45, label %46, label %49

46:                                               ; preds = %42, %39
  %47 = load ptr, ptr %9, align 8, !tbaa !33
  %48 = call i32 @u_strlen_77(ptr noundef %47)
  br label %52

49:                                               ; preds = %42
  %50 = load ptr, ptr %10, align 8, !tbaa !51
  %51 = load i32, ptr %50, align 4, !tbaa !23
  br label %52

52:                                               ; preds = %49, %46
  %53 = phi i32 [ %48, %46 ], [ %51, %49 ]
  store i32 %53, ptr %15, align 4, !tbaa !23
  call void @llvm.lifetime.start.p0(i64 64, ptr %16) #9
  %54 = load ptr, ptr %9, align 8, !tbaa !33
  %55 = load i32, ptr %15, align 4, !tbaa !23
  %56 = load i32, ptr %11, align 4, !tbaa !23
  call void @_ZN6icu_7713UnicodeStringC1EPDsii(ptr noundef nonnull align 8 dereferenceable(64) %16, ptr noundef %54, i32 noundef %55, i32 noundef %56)
  %57 = load ptr, ptr %8, align 8, !tbaa !8
  %58 = load i32, ptr %12, align 4, !tbaa !23
  %59 = load ptr, ptr %13, align 8, !tbaa !51
  %60 = load i32, ptr %59, align 4, !tbaa !23
  %61 = load ptr, ptr %57, align 8, !tbaa !12
  %62 = getelementptr inbounds ptr, ptr %61, i64 4
  %63 = load ptr, ptr %62, align 8
  %64 = invoke noundef i32 %63(ptr noundef nonnull align 8 dereferenceable(84) %57, ptr noundef nonnull align 8 dereferenceable(8) %16, i32 noundef %58, i32 noundef %60)
          to label %65 unwind label %78

65:                                               ; preds = %52
  %66 = load ptr, ptr %13, align 8, !tbaa !51
  store i32 %64, ptr %66, align 4, !tbaa !23
  %67 = load ptr, ptr %9, align 8, !tbaa !33
  invoke void @_ZN6icu_779Char16PtrC2EPDs(ptr noundef nonnull align 8 dereferenceable(8) %19, ptr noundef %67)
          to label %68 unwind label %78

68:                                               ; preds = %65
  %69 = load i32, ptr %11, align 4, !tbaa !23
  %70 = load ptr, ptr %14, align 8, !tbaa !39
  %71 = invoke noundef i32 @_ZNK6icu_7713UnicodeString7extractENS_9Char16PtrEiR10UErrorCode(ptr noundef nonnull align 8 dereferenceable(64) %16, ptr noundef %19, i32 noundef %69, ptr noundef nonnull align 4 dereferenceable(4) %70)
          to label %72 unwind label %82

72:                                               ; preds = %68
  store i32 %71, ptr %15, align 4, !tbaa !23
  call void @_ZN6icu_779Char16PtrD2Ev(ptr noundef nonnull align 8 dereferenceable(8) %19) #9
  %73 = load ptr, ptr %10, align 8, !tbaa !51
  %74 = icmp ne ptr %73, null
  br i1 %74, label %75, label %86

75:                                               ; preds = %72
  %76 = load i32, ptr %15, align 4, !tbaa !23
  %77 = load ptr, ptr %10, align 8, !tbaa !51
  store i32 %76, ptr %77, align 4, !tbaa !23
  br label %86

78:                                               ; preds = %65, %52
  %79 = landingpad { ptr, i32 }
          cleanup
  %80 = extractvalue { ptr, i32 } %79, 0
  store ptr %80, ptr %17, align 8
  %81 = extractvalue { ptr, i32 } %79, 1
  store i32 %81, ptr %18, align 4
  br label %88

82:                                               ; preds = %68
  %83 = landingpad { ptr, i32 }
          cleanup
  %84 = extractvalue { ptr, i32 } %83, 0
  store ptr %84, ptr %17, align 8
  %85 = extractvalue { ptr, i32 } %83, 1
  store i32 %85, ptr %18, align 4
  call void @_ZN6icu_779Char16PtrD2Ev(ptr noundef nonnull align 8 dereferenceable(8) %19) #9
  br label %88

86:                                               ; preds = %75, %72
  call void @_ZN6icu_7713UnicodeStringD1Ev(ptr noundef nonnull align 8 dereferenceable(64) %16) #9
  call void @llvm.lifetime.end.p0(i64 64, ptr %16) #9
  call void @llvm.lifetime.end.p0(i64 4, ptr %15) #9
  br label %87

87:                                               ; preds = %86, %37, %27
  ret void

88:                                               ; preds = %82, %78
  call void @_ZN6icu_7713UnicodeStringD1Ev(ptr noundef nonnull align 8 dereferenceable(64) %16) #9
  call void @llvm.lifetime.end.p0(i64 64, ptr %16) #9
  call void @llvm.lifetime.end.p0(i64 4, ptr %15) #9
  br label %89

89:                                               ; preds = %88
  %90 = load ptr, ptr %17, align 8
  %91 = load i32, ptr %18, align 4
  %92 = insertvalue { ptr, i32 } poison, ptr %90, 0
  %93 = insertvalue { ptr, i32 } %92, i32 %91, 1
  resume { ptr, i32 } %93
}