; Function Attrs: mustprogress uwtable
define void @utrans_transUChars_77(ptr noundef %0, ptr noundef %1, ptr noundef %2, i32 noundef %3, i32 noundef %4, ptr noundef %5, ptr noundef %6) local_unnamed_addr #4 personality ptr @__gxx_personality_v0 {
  %8 = alloca %"class.icu_77::UnicodeString", align 8
  %9 = alloca %"class.icu_77::Char16Ptr", align 8
  %10 = icmp eq ptr %6, null
  br i1 %10, label %44, label %11

11:                                               ; preds = %7
  %12 = load i32, ptr %6, align 4, !tbaa !23
  %13 = icmp slt i32 %12, 1
  br i1 %13, label %14, label %44

14:                                               ; preds = %11
  %15 = icmp eq ptr %0, null
  %16 = icmp eq ptr %1, null
  %or.cond = or i1 %15, %16
  %17 = icmp eq ptr %5, null
  %or.cond3 = or i1 %or.cond, %17
  br i1 %or.cond3, label %18, label %19

18:                                               ; preds = %14
  store i32 1, ptr %6, align 4, !tbaa !23
  br label %44

19:                                               ; preds = %14
  %20 = icmp eq ptr %2, null
  br i1 %20, label %24, label %21

21:                                               ; preds = %19
  %22 = load i32, ptr %2, align 4, !tbaa !29
  %23 = icmp slt i32 %22, 0
  br i1 %23, label %24, label %26

24:                                               ; preds = %21, %19
  %25 = tail call i32 @u_strlen_77(ptr noundef nonnull %1)
  br label %26

26:                                               ; preds = %21, %24
  %27 = phi i32 [ %25, %24 ], [ %22, %21 ]
  call void @llvm.lifetime.start.p0(i64 64, ptr nonnull %8) #10
  call void @_ZN6icu_7713UnicodeStringC1EPDsii(ptr noundef nonnull align 8 dereferenceable(64) %8, ptr noundef nonnull %1, i32 noundef %27, i32 noundef %3)
  %28 = load i32, ptr %5, align 4, !tbaa !29
  %29 = load ptr, ptr %0, align 8, !tbaa !3
  %30 = getelementptr inbounds nuw i8, ptr %29, i64 32
  %31 = load ptr, ptr %30, align 8
  %32 = invoke noundef i32 %31(ptr noundef nonnull align 8 dereferenceable(84) %0, ptr noundef nonnull align 8 dereferenceable(8) %8, i32 noundef %4, i32 noundef %28)
          to label %33 unwind label %38

33:                                               ; preds = %26
  store i32 %32, ptr %5, align 4, !tbaa !29
  store ptr %1, ptr %9, align 8, !tbaa !39
  %34 = invoke noundef i32 @_ZNK6icu_7713UnicodeString7extractENS_9Char16PtrEiR10UErrorCode(ptr noundef nonnull align 8 dereferenceable(64) %8, ptr noundef nonnull %9, i32 noundef %3, ptr noundef nonnull align 4 dereferenceable(4) %6)
          to label %35 unwind label %40

35:                                               ; preds = %33
  %36 = load ptr, ptr %9, align 8, !tbaa !39
  call void asm sideeffect "", "rm,~{memory},~{dirflag},~{fpsr},~{flags}"(ptr %36) #10, !srcloc !41
  br i1 %20, label %43, label %37

37:                                               ; preds = %35
  store i32 %34, ptr %2, align 4, !tbaa !29
  br label %43

38:                                               ; preds = %26
  %39 = landingpad { ptr, i32 }
          cleanup
  br label %45

40:                                               ; preds = %33
  %41 = landingpad { ptr, i32 }
          cleanup
  %42 = load ptr, ptr %9, align 8, !tbaa !39
  call void asm sideeffect "", "rm,~{memory},~{dirflag},~{fpsr},~{flags}"(ptr %42) #10, !srcloc !41
  br label %45

43:                                               ; preds = %37, %35
  call void @_ZN6icu_7713UnicodeStringD1Ev(ptr noundef nonnull align 8 dereferenceable(64) %8) #10
  call void @llvm.lifetime.end.p0(i64 64, ptr nonnull %8) #10
  br label %44

44:                                               ; preds = %7, %11, %43, %18
  ret void

45:                                               ; preds = %40, %38
  %.pn = phi { ptr, i32 } [ %41, %40 ], [ %39, %38 ]
  call void @_ZN6icu_7713UnicodeStringD1Ev(ptr noundef nonnull align 8 dereferenceable(64) %8) #10
  call void @llvm.lifetime.end.p0(i64 64, ptr nonnull %8) #10
  resume { ptr, i32 } %.pn
}